(lp0
(lp1
F4.473061800003052
aF2.5184028148651123
aF2.8691821098327637
aF2.3663439750671387
aF2.572942018508911
aF2.3974199295043945
aF3.036576986312866
aF2.102285861968994
aF2.625624179840088
aF2.18613600730896
aa(lp2
F9.180478811264038
aF12.79814600944519
aF10.936091184616089
aF11.740461111068726
aF14.002249002456665
aF12.168517827987671
aF9.771533012390137
aF12.267340183258057
aF14.425078868865967
aF13.097777128219604
aa.