(lp0
(lp1
F0.8763589859008789
aF0.9872469902038574
aF0.815147876739502
aF0.9482729434967041
aF0.943878173828125
aF0.7391800880432129
aF0.7321791648864746
aF0.9612069129943848
aF0.7891499996185303
aF1.1120390892028809
aF1.0885369777679443
aF0.8911359310150146
aF1.027845859527588
aF1.1846611499786377
aF0.9611420631408691
aF0.8734259605407715
aF0.9832558631896973
aF1.0379488468170166
aF1.2625868320465088
aF1.3986001014709473
aF1.0100619792938232
aF1.0849220752716064
aF1.3149700164794922
aF0.9352099895477295
aF0.9691541194915771
aF0.9162769317626953
aF1.0043489933013916
aF0.7077980041503906
aF1.1104660034179688
aF1.3419649600982666
aF0.9929420948028564
aF0.8869500160217285
aF1.4736402034759521
aF0.878119945526123
aF1.3026931285858154
aF1.2211458683013916
aF0.8960549831390381
aF1.2689740657806396
aF1.0963521003723145
aF0.9535799026489258
aF1.5797858238220215
aF1.2809898853302002
aF0.8885810375213623
aF1.5461509227752686
aF1.2651281356811523
aF1.305528163909912
aF1.074984073638916
aF1.3081550598144531
aF0.9477458000183105
aF0.8782460689544678
aa(lp2
F6.129380941390991
aF3.621051073074341
aF4.030389070510864
aF3.572427988052368
aF2.8058741092681885
aF2.90557599067688
aF3.2550580501556396
aF3.025637149810791
aF3.521928071975708
aF3.3242390155792236
aF5.0885491371154785
aF4.066568851470947
aF3.2120840549468994
aF3.669390916824341
aF4.245434045791626
aF3.215804100036621
aF4.680931806564331
aF3.9010679721832275
aF3.897423028945923
aF3.0926899909973145
aF4.07452392578125
aF3.6919100284576416
aF3.3850491046905518
aF4.831700086593628
aF5.051912069320679
aF2.816706895828247
aF4.459491014480591
aF3.9126501083374023
aF3.899009943008423
aF3.8666679859161377
aF4.237138032913208
aF4.5287909507751465
aF2.659121036529541
aF2.628185987472534
aF4.606917858123779
aF4.968216180801392
aF4.711848974227905
aF3.8527779579162598
aF4.524188995361328
aF3.749423027038574
aF4.74541711807251
aF3.092130184173584
aF4.80190110206604
aF5.913095951080322
aF3.7717719078063965
aF4.558467149734497
aF3.881347894668579
aF3.4314069747924805
aF3.514025926589966
aF3.1309220790863037
aa.