(lp0
(lp1
F6.103034973144531
aF7.475761890411377
aF8.31691598892212
aF12.406303882598877
aF15.698883056640625
aa(lp2
F71.33299708366394
aF76.34501099586487
aF100.11657404899597
aF70.61355185508728
aF63.19120407104492
aa.