(lp0
(lp1
F2.468062162399292
aF1.7004339694976807
aF2.2392749786376953
aF2.381213903427124
aF2.2545881271362305
aF1.7142579555511475
aF1.7009050846099854
aF1.743459939956665
aF2.118677854537964
aF1.8428308963775635
aF1.8520700931549072
aF2.0036849975585938
aF1.6199908256530762
aF1.482719898223877
aF1.9642040729522705
aF1.7944960594177246
aF1.762605905532837
aF2.3762831687927246
aF1.5949409008026123
aF1.7673470973968506
aF2.545380115509033
aF1.5363399982452393
aF1.6050889492034912
aF2.189976930618286
aF1.7450590133666992
aF1.8588268756866455
aF1.5685229301452637
aF1.9542038440704346
aF2.281198024749756
aF1.811851978302002
aF2.053156852722168
aF2.59206485748291
aF1.7263731956481934
aF1.8132600784301758
aF2.0041420459747314
aF1.7363109588623047
aF1.6912579536437988
aF2.968226909637451
aF1.9266750812530518
aF1.5696690082550049
aF1.9676079750061035
aF2.4998278617858887
aF2.67057204246521
aF1.980224847793579
aF1.872269868850708
aF2.4263951778411865
aF1.9207370281219482
aF2.007122039794922
aF1.4484028816223145
aF1.8839797973632812
aa(lp2
F19.99505090713501
aF12.550764083862305
aF12.798815965652466
aF12.648568868637085
aF18.737757921218872
aF13.523350954055786
aF11.695359945297241
aF14.491738080978394
aF16.127292156219482
aF14.678603887557983
aF15.98465895652771
aF12.084420204162598
aF8.724444150924683
aF14.240746021270752
aF9.172036170959473
aF14.944584846496582
aF11.955678939819336
aF11.592747926712036
aF13.59398102760315
aF10.921250104904175
aF9.362734079360962
aF12.937621116638184
aF18.695943117141724
aF11.539835929870605
aF11.815811157226562
aF10.383995056152344
aF9.714951038360596
aF14.063722848892212
aF14.11700701713562
aF11.31356692314148
aF14.43398404121399
aF11.89122486114502
aF10.174062013626099
aF15.115417003631592
aF9.404810905456543
aF8.332556009292603
aF17.022361993789673
aF15.105489015579224
aF13.170705080032349
aF10.829083919525146
aF11.147420883178711
aF11.291080951690674
aF11.606559991836548
aF15.315818786621094
aF10.274238109588623
aF12.213908910751343
aF15.341028928756714
aF14.503139019012451
aF15.894383907318115
aF15.310106992721558
aa.