(lp0
(lp1
F5.401963949203491
aF4.2536280155181885
aF4.675402879714966
aF5.295200824737549
aF5.421349048614502
aF5.625477075576782
aF4.9835522174835205
aF3.7434260845184326
aF4.8883750438690186
aF3.6350600719451904
aa(lp2
F27.0783851146698
aF30.772145986557007
aF27.92226791381836
aF32.25350093841553
aF21.16612696647644
aF26.91179609298706
aF21.985483169555664
aF33.22381401062012
aF36.669695138931274
aF22.45667004585266
aa.